target datalayout = "e-m:e-p270:32:32-p271:32:32-p272:64:64-i64:64-i128:128-f80:128-n8:16:32:64-S128"
target triple = "x86_64-pc-linux-gnu"

; Function Attrs: inlinehint nounwind uwtable
define internal i32 @GetSSE(ptr noalias noundef %0, ptr noalias noundef %1, i32 noundef %2, i32 noundef %3) #4 {
  %5 = alloca ptr, align 8
  %6 = alloca ptr, align 8
  %7 = alloca i32, align 4
  %8 = alloca i32, align 4
  %9 = alloca i32, align 4
  %10 = alloca i32, align 4
  %11 = alloca i32, align 4
  %12 = alloca i32, align 4
  store ptr %0, ptr %5, align 8, !tbaa !18
  store ptr %1, ptr %6, align 8, !tbaa !18
  store i32 %2, ptr %7, align 4, !tbaa !9
  store i32 %3, ptr %8, align 4, !tbaa !9
  call void @llvm.lifetime.start.p0(i64 4, ptr %9) #8
  store i32 0, ptr %9, align 4, !tbaa !9
  call void @llvm.lifetime.start.p0(i64 4, ptr %10) #8
  call void @llvm.lifetime.start.p0(i64 4, ptr %11) #8
  store i32 0, ptr %10, align 4, !tbaa !9
  br label %13

13:                                               ; preds = %49, %4
  %14 = load i32, ptr %10, align 4, !tbaa !9
  %15 = load i32, ptr %8, align 4, !tbaa !9
  %16 = icmp slt i32 %14, %15
  br i1 %16, label %17, label %52

17:                                               ; preds = %13
  store i32 0, ptr %11, align 4, !tbaa !9
  br label %18

18:                                               ; preds = %41, %17
  %19 = load i32, ptr %11, align 4, !tbaa !9
  %20 = load i32, ptr %7, align 4, !tbaa !9
  %21 = icmp slt i32 %19, %20
  br i1 %21, label %22, label %44

22:                                               ; preds = %18
  call void @llvm.lifetime.start.p0(i64 4, ptr %12) #8
  %23 = load ptr, ptr %5, align 8, !tbaa !18
  %24 = load i32, ptr %11, align 4, !tbaa !9
  %25 = sext i32 %24 to i64
  %26 = getelementptr inbounds i8, ptr %23, i64 %25
  %27 = load i8, ptr %26, align 1, !tbaa !16
  %28 = zext i8 %27 to i32
  %29 = load ptr, ptr %6, align 8, !tbaa !18
  %30 = load i32, ptr %11, align 4, !tbaa !9
  %31 = sext i32 %30 to i64
  %32 = getelementptr inbounds i8, ptr %29, i64 %31
  %33 = load i8, ptr %32, align 1, !tbaa !16
  %34 = zext i8 %33 to i32
  %35 = sub nsw i32 %28, %34
  store i32 %35, ptr %12, align 4, !tbaa !9
  %36 = load i32, ptr %12, align 4, !tbaa !9
  %37 = load i32, ptr %12, align 4, !tbaa !9
  %38 = mul nsw i32 %36, %37
  %39 = load i32, ptr %9, align 4, !tbaa !9
  %40 = add nsw i32 %39, %38
  store i32 %40, ptr %9, align 4, !tbaa !9
  call void @llvm.lifetime.end.p0(i64 4, ptr %12) #8
  br label %41

41:                                               ; preds = %22
  %42 = load i32, ptr %11, align 4, !tbaa !9
  %43 = add nsw i32 %42, 1
  store i32 %43, ptr %11, align 4, !tbaa !9
  br label %18, !llvm.loop !42

44:                                               ; preds = %18
  %45 = load ptr, ptr %5, align 8, !tbaa !18
  %46 = getelementptr inbounds i8, ptr %45, i64 32
  store ptr %46, ptr %5, align 8, !tbaa !18
  %47 = load ptr, ptr %6, align 8, !tbaa !18
  %48 = getelementptr inbounds i8, ptr %47, i64 32
  store ptr %48, ptr %6, align 8, !tbaa !18
  br label %49

49:                                               ; preds = %44
  %50 = load i32, ptr %10, align 4, !tbaa !9
  %51 = add nsw i32 %50, 1
  store i32 %51, ptr %10, align 4, !tbaa !9
  br label %13, !llvm.loop !43

52:                                               ; preds = %13
  %53 = load i32, ptr %9, align 4, !tbaa !9
  call void @llvm.lifetime.end.p0(i64 4, ptr %11) #8
  call void @llvm.lifetime.end.p0(i64 4, ptr %10) #8
  call void @llvm.lifetime.end.p0(i64 4, ptr %9) #8
  ret i32 %53
}

; Function Attrs: nounwind uwtable
define internal i32 @SSE4x4_C(ptr noalias noundef %0, ptr noalias noundef %1) #0 {
  %3 = alloca ptr, align 8
  %4 = alloca ptr, align 8
  store ptr %0, ptr %3, align 8, !tbaa !18
  store ptr %1, ptr %4, align 8, !tbaa !18
  %5 = load ptr, ptr %3, align 8, !tbaa !18
  %6 = load ptr, ptr %4, align 8, !tbaa !18
  %7 = call i32 @GetSSE(ptr noundef %5, ptr noundef %6, i32 noundef 4, i32 noundef 4)
  ret i32 %7
}